; Function Attrs: nounwind sspstrong uwtable
define dso_local i64 @ram_bytes_total() local_unnamed_addr #0 {
entry:
  %call.i.i = tail call ptr @get_ptr_rcu_reader() #18
  %depth.i.i = getelementptr inbounds nuw i8, ptr %call.i.i, i64 12
  %0 = load i32, ptr %depth.i.i, align 4
  %inc.i.i = add i32 %0, 1
  store i32 %inc.i.i, ptr %depth.i.i, align 4
  %cmp.not.i.i = icmp eq i32 %0, 0
  br i1 %cmp.not.i.i, label %while.end.i.i, label %rcu_read_auto_lock.exit

while.end.i.i:                                    ; preds = %entry
  %1 = load atomic i64, ptr @rcu_gp_ctr monotonic, align 8
  %conv8.i.i = and i64 %1, 4294967295
  store atomic i64 %conv8.i.i, ptr %call.i.i monotonic, align 8
  tail call void asm sideeffect "", "~{memory},~{dirflag},~{fpsr},~{flags}"() #18, !srcloc !5
  fence seq_cst
  br label %rcu_read_auto_lock.exit

rcu_read_auto_lock.exit:                          ; preds = %entry, %while.end.i.i
  %2 = load atomic i64, ptr getelementptr inbounds nuw (i8, ptr @ram_list, i64 56) monotonic, align 8
  tail call void asm sideeffect "", "~{memory},~{dirflag},~{fpsr},~{flags}"() #18, !srcloc !33
  %tobool.not7 = icmp eq i64 %2, 0
  br i1 %tobool.not7, label %if.then.i.i, label %for.body

for.body:                                         ; preds = %rcu_read_auto_lock.exit, %while.end7
  %block.09.in = phi i64 [ %4, %while.end7 ], [ %2, %rcu_read_auto_lock.exit ]
  %total.08 = phi i64 [ %total.1, %while.end7 ], [ 0, %rcu_read_auto_lock.exit ]
  %block.09 = inttoptr i64 %block.09.in to ptr
  %call.i = tail call zeroext i1 @qemu_ram_is_migratable(ptr noundef nonnull %block.09) #18
  br i1 %call.i, label %lor.rhs.i, label %while.end7

lor.rhs.i:                                        ; preds = %for.body
  %call1.i = tail call zeroext i1 @migrate_ignore_shared() #18
  br i1 %call1.i, label %land.lhs.true.i, label %if.else

land.lhs.true.i:                                  ; preds = %lor.rhs.i
  %call2.i = tail call zeroext i1 @qemu_ram_is_shared(ptr noundef nonnull %block.09) #18
  br i1 %call2.i, label %migrate_ram_is_ignored.exit, label %if.else

migrate_ram_is_ignored.exit:                      ; preds = %land.lhs.true.i
  %call3.i = tail call zeroext i1 @qemu_ram_is_named_file(ptr noundef nonnull %block.09) #18
  br i1 %call3.i, label %while.end7, label %if.else

if.else:                                          ; preds = %lor.rhs.i, %land.lhs.true.i, %migrate_ram_is_ignored.exit
  %used_length = getelementptr inbounds nuw i8, ptr %block.09, i64 48
  %3 = load i64, ptr %used_length, align 8
  %add = add i64 %3, %total.08
  br label %while.end7

while.end7:                                       ; preds = %for.body, %if.else, %migrate_ram_is_ignored.exit
  %total.1 = phi i64 [ %total.08, %migrate_ram_is_ignored.exit ], [ %add, %if.else ], [ %total.08, %for.body ]
  %next = getelementptr inbounds nuw i8, ptr %block.09, i64 336
  %4 = load atomic i64, ptr %next monotonic, align 8
  tail call void asm sideeffect "", "~{memory},~{dirflag},~{fpsr},~{flags}"() #18, !srcloc !34
  %tobool.not = icmp eq i64 %4, 0
  br i1 %tobool.not, label %if.then.i.i, label %for.body, !llvm.loop !35

if.then.i.i:                                      ; preds = %while.end7, %rcu_read_auto_lock.exit
  %total.0.lcssa = phi i64 [ 0, %rcu_read_auto_lock.exit ], [ %total.1, %while.end7 ]
  %call.i.i.i.i = tail call ptr @get_ptr_rcu_reader() #18
  %depth.i.i.i.i = getelementptr inbounds nuw i8, ptr %call.i.i.i.i, i64 12
  %5 = load i32, ptr %depth.i.i.i.i, align 4
  %cmp.not.i.i.i.i = icmp eq i32 %5, 0
  br i1 %cmp.not.i.i.i.i, label %if.else.i.i.i.i, label %if.end.i.i.i.i

if.else.i.i.i.i:                                  ; preds = %if.then.i.i
  tail call void @__assert_fail(ptr noundef nonnull @.str.60, ptr noundef nonnull @.str.28, i32 noundef 101, ptr noundef nonnull @__PRETTY_FUNCTION__.rcu_read_unlock) #19
  unreachable

if.end.i.i.i.i:                                   ; preds = %if.then.i.i
  %dec.i.i.i.i = add i32 %5, -1
  store i32 %dec.i.i.i.i, ptr %depth.i.i.i.i, align 4
  %cmp2.not.i.i.i.i = icmp eq i32 %dec.i.i.i.i, 0
  br i1 %cmp2.not.i.i.i.i, label %while.end.i.i.i.i, label %glib_autoptr_cleanup_RCUReadAuto.exit

while.end.i.i.i.i:                                ; preds = %if.end.i.i.i.i
  store atomic i64 0, ptr %call.i.i.i.i release, align 8
  tail call void asm sideeffect "", "~{memory},~{dirflag},~{fpsr},~{flags}"() #18, !srcloc !10
  fence seq_cst
  %waiting.i.i.i.i = getelementptr inbounds nuw i8, ptr %call.i.i.i.i, i64 8
  %6 = load atomic i8, ptr %waiting.i.i.i.i monotonic, align 8
  %tobool.i.i.i.i = trunc i8 %6 to i1
  br i1 %tobool.i.i.i.i, label %while.end21.i.i.i.i, label %glib_autoptr_cleanup_RCUReadAuto.exit

while.end21.i.i.i.i:                              ; preds = %while.end.i.i.i.i
  store atomic i8 0, ptr %waiting.i.i.i.i monotonic, align 8
  tail call void @qemu_event_set(ptr noundef nonnull @rcu_gp_event) #18
  br label %glib_autoptr_cleanup_RCUReadAuto.exit

glib_autoptr_cleanup_RCUReadAuto.exit:            ; preds = %if.end.i.i.i.i, %while.end.i.i.i.i, %while.end21.i.i.i.i
  ret i64 %total.0.lcssa
}